; Function Attrs: mustprogress nofree norecurse nosync nounwind willreturn memory(argmem: readwrite) uwtable
define void @_ZN7rocksdb14BlobFileReaderC2EOSt10unique_ptrINS_22RandomAccessFileReaderESt14default_deleteIS2_EEmNS_15CompressionTypeEPNS_11SystemClockEPNS_10StatisticsE(ptr nocapture noundef nonnull writeonly align 8 dereferenceable(40) %this, ptr nocapture noundef nonnull align 8 dereferenceable(8) %file_reader, i64 noundef %file_size, i8 noundef zeroext %compression_type, ptr noundef %clock, ptr noundef %statistics) unnamed_addr #9 align 2 {
entry:
  %0 = load i64, ptr %file_reader, align 8
  store i64 %0, ptr %this, align 8
  store ptr null, ptr %file_reader, align 8
  %file_size_ = getelementptr inbounds i8, ptr %this, i64 8
  store i64 %file_size, ptr %file_size_, align 8
  %compression_type_ = getelementptr inbounds i8, ptr %this, i64 16
  store i8 %compression_type, ptr %compression_type_, align 8
  %clock_ = getelementptr inbounds i8, ptr %this, i64 24
  store ptr %clock, ptr %clock_, align 8
  %statistics_ = getelementptr inbounds i8, ptr %this, i64 32
  store ptr %statistics, ptr %statistics_, align 8
  ret void
}